; ModuleID = '58/10.c'
source_filename = "58/10.c"
target datalayout = "e-m:e-p270:32:32-p271:32:32-p272:64:64-i64:64-f80:128-n8:16:32:64-S128"
target triple = "x86_64-pc-linux-gnu"

@.str = private unnamed_addr constant [4 x i8] c"%d\0A\00", align 1

; Function Attrs: noinline nounwind uwtable
define dso_local i32 @pdshuzi(i8 signext %0) #0 {
  %2 = alloca i8, align 1
  %3 = alloca i32, align 4
  store i8 %0, i8* %2, align 1
  %4 = load i8, i8* %2, align 1
  %5 = sext i8 %4 to i32
  %6 = icmp sge i32 %5, 48
  br i1 %6, label %7, label %12

7:                                                ; preds = %1
  %8 = load i8, i8* %2, align 1
  %9 = sext i8 %8 to i32
  %10 = icmp sle i32 %9, 57
  br i1 %10, label %11, label %12

11:                                               ; preds = %7
  store i32 1, i32* %3, align 4
  br label %13

12:                                               ; preds = %7, %1
  store i32 0, i32* %3, align 4
  br label %13

13:                                               ; preds = %12, %11
  %14 = load i32, i32* %3, align 4
  ret i32 %14
}

; Function Attrs: noinline nounwind uwtable
define dso_local i32 @pdzimu(i8 signext %0) #0 {
  %2 = alloca i8, align 1
  %3 = alloca i32, align 4
  store i8 %0, i8* %2, align 1
  %4 = load i8, i8* %2, align 1
  %5 = sext i8 %4 to i32
  %6 = icmp sge i32 %5, 97
  br i1 %6, label %7, label %11

7:                                                ; preds = %1
  %8 = load i8, i8* %2, align 1
  %9 = sext i8 %8 to i32
  %10 = icmp sle i32 %9, 122
  br i1 %10, label %19, label %11

11:                                               ; preds = %7, %1
  %12 = load i8, i8* %2, align 1
  %13 = sext i8 %12 to i32
  %14 = icmp sge i32 %13, 65
  br i1 %14, label %15, label %20

15:                                               ; preds = %11
  %16 = load i8, i8* %2, align 1
  %17 = sext i8 %16 to i32
  %18 = icmp sle i32 %17, 90
  br i1 %18, label %19, label %20

19:                                               ; preds = %15, %7
  store i32 1, i32* %3, align 4
  br label %21

20:                                               ; preds = %15, %11
  store i32 0, i32* %3, align 4
  br label %21

21:                                               ; preds = %20, %19
  %22 = load i32, i32* %3, align 4
  ret i32 %22
}

; Function Attrs: noinline nounwind uwtable
define dso_local i32 @sort(i8* %0) #0 {
  %2 = alloca i32, align 4
  %3 = alloca i8*, align 8
  %4 = alloca i8*, align 8
  %5 = alloca i32, align 4
  %6 = alloca i32, align 4
  store i8* %0, i8** %3, align 8
  store i32 1, i32* %6, align 4
  %7 = load i8*, i8** %3, align 8
  store i8* %7, i8** %4, align 8
  %8 = load i8*, i8** %4, align 8
  %9 = load i8, i8* %8, align 1
  %10 = call i32 @pdzimu(i8 signext %9)
  %11 = icmp eq i32 %10, 1
  br i1 %11, label %17, label %12

12:                                               ; preds = %1
  %13 = load i8*, i8** %4, align 8
  %14 = load i8, i8* %13, align 1
  %15 = sext i8 %14 to i32
  %16 = icmp eq i32 %15, 95
  br i1 %16, label %17, label %18

17:                                               ; preds = %12, %1
  store i32 1, i32* %5, align 4
  br label %20

18:                                               ; preds = %12
  store i32 0, i32* %5, align 4
  %19 = load i32, i32* %5, align 4
  store i32 %19, i32* %2, align 4
  br label %57

20:                                               ; preds = %17
  %21 = load i8*, i8** %4, align 8
  %22 = getelementptr inbounds i8, i8* %21, i32 1
  store i8* %22, i8** %4, align 8
  br label %23

23:                                               ; preds = %50, %20
  %24 = load i8*, i8** %4, align 8
  %25 = load i8, i8* %24, align 1
  %26 = sext i8 %25 to i32
  %27 = icmp ne i32 %26, 0
  br i1 %27, label %28, label %53

28:                                               ; preds = %23
  %29 = load i8*, i8** %4, align 8
  %30 = load i8, i8* %29, align 1
  %31 = call i32 @pdzimu(i8 signext %30)
  %32 = icmp eq i32 %31, 1
  br i1 %32, label %43, label %33

33:                                               ; preds = %28
  %34 = load i8*, i8** %4, align 8
  %35 = load i8, i8* %34, align 1
  %36 = call i32 @pdshuzi(i8 signext %35)
  %37 = icmp eq i32 %36, 1
  br i1 %37, label %43, label %38

38:                                               ; preds = %33
  %39 = load i8*, i8** %4, align 8
  %40 = load i8, i8* %39, align 1
  %41 = sext i8 %40 to i32
  %42 = icmp eq i32 %41, 95
  br i1 %42, label %43, label %44

43:                                               ; preds = %38, %33, %28
  store i32 1, i32* %6, align 4
  br label %45

44:                                               ; preds = %38
  store i32 0, i32* %6, align 4
  br label %45

45:                                               ; preds = %44, %43
  %46 = load i32, i32* %6, align 4
  %47 = icmp eq i32 %46, 0
  br i1 %47, label %48, label %49

48:                                               ; preds = %45
  store i32 0, i32* %2, align 4
  br label %57

49:                                               ; preds = %45
  br label %50

50:                                               ; preds = %49
  %51 = load i8*, i8** %4, align 8
  %52 = getelementptr inbounds i8, i8* %51, i32 1
  store i8* %52, i8** %4, align 8
  br label %23

53:                                               ; preds = %23
  %54 = load i32, i32* %6, align 4
  %55 = icmp eq i32 %54, 1
  br i1 %55, label %56, label %57

56:                                               ; preds = %53
  store i32 1, i32* %2, align 4
  br label %57

57:                                               ; preds = %18, %48, %56, %53
  %58 = load i32, i32* %2, align 4
  ret i32 %58
}

; Function Attrs: noinline nounwind uwtable
define dso_local void @main() #0 {
  %1 = alloca [100 x i8*], align 16
  %2 = alloca i8**, align 8
  %3 = alloca i32, align 4
  %4 = alloca i32, align 4
  %5 = call i32 (i8*, ...) @__isoc99_scanf(i8* getelementptr inbounds ([4 x i8], [4 x i8]* @.str, i64 0, i64 0), i32* %3)
  %6 = getelementptr inbounds [100 x i8*], [100 x i8*]* %1, i64 0, i64 0
  store i8** %6, i8*** %2, align 8
  store i32 0, i32* %4, align 4
  br label %7

7:                                                ; preds = %14, %0
  %8 = load i32, i32* %4, align 4
  %9 = load i32, i32* %3, align 4
  %10 = icmp slt i32 %8, %9
  br i1 %10, label %11, label %19

11:                                               ; preds = %7
  %12 = call noalias i8* @malloc(i64 90) #3
  %13 = load i8**, i8*** %2, align 8
  store i8* %12, i8** %13, align 8
  br label %14

14:                                               ; preds = %11
  %15 = load i32, i32* %4, align 4
  %16 = add nsw i32 %15, 1
  store i32 %16, i32* %4, align 4
  %17 = load i8**, i8*** %2, align 8
  %18 = getelementptr inbounds i8*, i8** %17, i32 1
  store i8** %18, i8*** %2, align 8
  br label %7

19:                                               ; preds = %7
  %20 = getelementptr inbounds [100 x i8*], [100 x i8*]* %1, i64 0, i64 0
  store i8** %20, i8*** %2, align 8
  br label %21

21:                                               ; preds = %32, %19
  %22 = load i8**, i8*** %2, align 8
  %23 = getelementptr inbounds [100 x i8*], [100 x i8*]* %1, i64 0, i64 0
  %24 = load i32, i32* %3, align 4
  %25 = sext i32 %24 to i64
  %26 = getelementptr inbounds i8*, i8** %23, i64 %25
  %27 = icmp ult i8** %22, %26
  br i1 %27, label %28, label %35

28:                                               ; preds = %21
  %29 = load i8**, i8*** %2, align 8
  %30 = load i8*, i8** %29, align 8
  %31 = call i32 (i8*, ...) bitcast (i32 (...)* @gets to i32 (i8*, ...)*)(i8* %30)
  br label %32

32:                                               ; preds = %28
  %33 = load i8**, i8*** %2, align 8
  %34 = getelementptr inbounds i8*, i8** %33, i32 1
  store i8** %34, i8*** %2, align 8
  br label %21

35:                                               ; preds = %21
  %36 = getelementptr inbounds [100 x i8*], [100 x i8*]* %1, i64 0, i64 0
  store i8** %36, i8*** %2, align 8
  br label %37

37:                                               ; preds = %49, %35
  %38 = load i8**, i8*** %2, align 8
  %39 = getelementptr inbounds [100 x i8*], [100 x i8*]* %1, i64 0, i64 0
  %40 = load i32, i32* %3, align 4
  %41 = sext i32 %40 to i64
  %42 = getelementptr inbounds i8*, i8** %39, i64 %41
  %43 = icmp ult i8** %38, %42
  br i1 %43, label %44, label %52

44:                                               ; preds = %37
  %45 = load i8**, i8*** %2, align 8
  %46 = load i8*, i8** %45, align 8
  %47 = call i32 @sort(i8* %46)
  %48 = call i32 (i8*, ...) @printf(i8* getelementptr inbounds ([4 x i8], [4 x i8]* @.str, i64 0, i64 0), i32 %47)
  br label %49

49:                                               ; preds = %44
  %50 = load i8**, i8*** %2, align 8
  %51 = getelementptr inbounds i8*, i8** %50, i32 1
  store i8** %51, i8*** %2, align 8
  br label %37

52:                                               ; preds = %37
  ret void
}

declare dso_local i32 @__isoc99_scanf(i8*, ...) #1

; Function Attrs: nounwind
declare dso_local noalias i8* @malloc(i64) #2

declare dso_local i32 @gets(...) #1

declare dso_local i32 @printf(i8*, ...) #1


!llvm.module.flags = !{!0}
!llvm.ident = !{!1}

!0 = !{i32 1, !"wchar_size", i32 4}
!1 = !{!"clang version 10.0.0-4ubuntu1 "}
